TN:
SF:/home/bob/_workspaces/kit.core/src/Kit/Io/IClose.h
FN:38,38,_ZN3Kit2Io6ICloseD0Ev
FN:38,38,_ZN3Kit2Io6ICloseD2Ev
FNDA:0,_ZN3Kit2Io6ICloseD0Ev
FNDA:27,_ZN3Kit2Io6ICloseD2Ev
FNF:2
FNH:1
DA:38,27
LF:1
LH:1
end_of_record
TN:
SF:/home/bob/_workspaces/kit.core/src/Kit/Io/IEos.h
FN:37,37,_ZN3Kit2Io4IEosD0Ev
FN:37,37,_ZN3Kit2Io4IEosD2Ev
FNDA:0,_ZN3Kit2Io4IEosD0Ev
FNDA:27,_ZN3Kit2Io4IEosD2Ev
FNF:2
FNH:1
DA:37,27
LF:1
LH:1
end_of_record
TN:
SF:/home/bob/_workspaces/kit.core/src/Kit/Io/IInput.cpp
FN:21,31,_ZN3Kit2Io6IInput4readERc
FN:34,43,_ZN3Kit2Io6IInput4readERNS_4Text7IStringE
FN:45,62,_ZN3Kit2Io6IInput4readERNS_4Text7IStringEi
FN:64,88,_ZN3Kit2Io6IInput4readEPvi
FNDA:188,_ZN3Kit2Io6IInput4readERc
FNDA:5,_ZN3Kit2Io6IInput4readERNS_4Text7IStringE
FNDA:0,_ZN3Kit2Io6IInput4readERNS_4Text7IStringEi
FNDA:0,_ZN3Kit2Io6IInput4readEPvi
FNF:4
FNH:2
BRDA:29,0,0,178
BRDA:29,0,1,10
BRDA:29,0,2,0
BRDA:29,0,3,178
BRDA:51,0,0,-
BRDA:51,0,1,-
BRDA:57,0,0,-
BRDA:57,0,1,-
BRDA:67,0,0,-
BRDA:67,0,1,-
BRDA:75,0,0,-
BRDA:75,0,1,-
BRDA:77,0,0,-
BRDA:77,0,1,-
BRF:14
BRH:3
DA:21,188
DA:23,188
DA:24,188
DA:27,188
DA:29,188
DA:30,188
DA:34,5
DA:36,5
DA:37,5
DA:38,5
DA:39,5
DA:40,5
DA:41,5
DA:42,5
DA:45,0
DA:48,0
DA:49,0
DA:50,0
DA:51,0
DA:53,0
DA:56,0
DA:57,0
DA:59,0
DA:61,0
DA:64,0
DA:67,0
DA:70,0
DA:71,0
DA:72,0
DA:75,0
DA:77,0
DA:79,0
DA:81,0
DA:82,0
DA:87,0
LF:35
LH:14
end_of_record
TN:
SF:/home/bob/_workspaces/kit.core/src/Kit/Io/IInput.h
FN:97,97,_ZN3Kit2Io6IInputD2Ev
FNDA:16,_ZN3Kit2Io6IInputD2Ev
FNF:1
FNH:1
DA:97,16
LF:1
LH:1
end_of_record
TN:
SF:/home/bob/_workspaces/kit.core/src/Kit/Io/ILineReader.h
FN:59,59,_ZN3Kit2Io11ILineReaderD0Ev
FN:59,59,_ZN3Kit2Io11ILineReaderD2Ev
FNDA:0,_ZN3Kit2Io11ILineReaderD0Ev
FNDA:3,_ZN3Kit2Io11ILineReaderD2Ev
FNF:2
FNH:1
DA:59,3
LF:1
LH:1
end_of_record
TN:
SF:/home/bob/_workspaces/kit.core/src/Kit/Io/ILineWriter.h
FN:94,94,_ZN3Kit2Io11ILineWriterD0Ev
FN:94,94,_ZN3Kit2Io11ILineWriterD2Ev
FNDA:0,_ZN3Kit2Io11ILineWriterD0Ev
FNDA:3,_ZN3Kit2Io11ILineWriterD2Ev
FNF:2
FNH:1
DA:94,3
LF:1
LH:1
end_of_record
TN:
SF:/home/bob/_workspaces/kit.core/src/Kit/Io/IOutput.cpp
FN:21,26,_ZN3Kit2Io7IOutput5writeEc
FN:29,33,_ZN3Kit2Io7IOutput5writeEPKc
FN:36,40,_ZN3Kit2Io7IOutput5writeERKNS_4Text7IStringE
FN:43,50,_ZN3Kit2Io7IOutput5writeERNS_4Text7IStringEPKcz
FN:52,57,_ZN3Kit2Io7IOutput6vwriteERNS_4Text7IStringEPKcP13__va_list_tag
FN:59,77,_ZN3Kit2Io7IOutput5writeEPKvi
FNDA:12,_ZN3Kit2Io7IOutput5writeEc
FNDA:53,_ZN3Kit2Io7IOutput5writeEPKc
FNDA:4,_ZN3Kit2Io7IOutput5writeERKNS_4Text7IStringE
FNDA:3,_ZN3Kit2Io7IOutput5writeERNS_4Text7IStringEPKcz
FNDA:3,_ZN3Kit2Io7IOutput6vwriteERNS_4Text7IStringEPKcP13__va_list_tag
FNDA:75,_ZN3Kit2Io7IOutput5writeEPKvi
FNF:6
FNH:6
BRDA:65,0,0,74
BRDA:65,0,1,45
BRDA:67,0,0,30
BRDA:67,0,1,44
BRF:4
BRH:4
DA:21,12
DA:23,12
DA:24,12
DA:25,12
DA:29,53
DA:31,53
DA:32,53
DA:36,4
DA:38,4
DA:39,4
DA:43,3
DA:46,3
DA:47,3
DA:48,3
DA:49,3
DA:52,3
DA:54,3
DA:55,3
DA:56,3
DA:59,75
DA:61,75
DA:62,75
DA:65,119
DA:67,74
DA:69,30
DA:71,44
DA:72,44
DA:76,45
LF:28
LH:28
end_of_record
TN:
SF:/home/bob/_workspaces/kit.core/src/Kit/Io/IOutput.h
FN:98,98,_ZN3Kit2Io7IOutputD2Ev
FNDA:24,_ZN3Kit2Io7IOutputD2Ev
FNF:1
FNH:1
DA:98,24
LF:1
LH:1
end_of_record
TN:
SF:/home/bob/_workspaces/kit.core/src/Kit/Io/LineReader.cpp
FN:22,26,_ZN3Kit2Io10LineReaderC2ERNS0_6IInputEPKc
FN:29,32,_ZN3Kit2Io10LineReader9availableEv
FN:35,38,_ZN3Kit2Io10LineReader5closeEv
FN:42,84,_ZN3Kit2Io10LineReader6readlnERNS_4Text7IStringE
FN:88,128,_ZN3Kit2IoL21discardRemainingLine_ERNS0_6IInputEPKcRNS_4Text7IStringEcc
FNDA:3,_ZN3Kit2Io10LineReaderC2ERNS0_6IInputEPKc
FNDA:1,_ZN3Kit2Io10LineReader9availableEv
FNDA:1,_ZN3Kit2Io10LineReader5closeEv
FNDA:8,_ZN3Kit2Io10LineReader6readlnERNS_4Text7IStringE
FNDA:4,_ZN3Kit2IoL21discardRemainingLine_ERNS0_6IInputEPKcRNS_4Text7IStringEcc
FNF:5
FNH:5
BRDA:52,0,0,29
BRDA:52,0,1,3
BRDA:58,0,0,4
BRDA:58,0,1,25
BRDA:65,0,0,1
BRDA:65,0,1,24
BRDA:75,0,0,0
BRDA:75,0,1,24
BRDA:93,0,0,4
BRDA:93,0,1,0
BRDA:96,0,0,63
BRDA:96,0,1,0
BRDA:96,0,2,59
BRDA:96,0,3,4
BRDA:110,0,0,-
BRDA:110,0,1,-
BRDA:117,0,0,-
BRDA:117,0,1,-
BRDA:117,0,2,-
BRDA:117,0,3,-
BRDA:117,0,4,-
BRDA:117,0,5,-
BRDA:125,0,0,-
BRDA:125,0,1,-
BRF:24
BRH:11
DA:22,3
DA:23,3
DA:24,3
DA:26,3
DA:29,1
DA:31,1
DA:35,1
DA:37,1
DA:38,1
DA:42,8
DA:46,8
DA:49,8
DA:52,32
DA:55,29
DA:58,29
DA:60,4
DA:61,4
DA:65,25
DA:67,1
DA:68,1
DA:72,24
DA:75,24
DA:77,0
DA:78,0
DA:83,8
DA:88,4
DA:90,4
DA:93,4
DA:96,63
DA:98,59
DA:106,0
DA:107,0
DA:110,0
DA:112,0
DA:113,0
DA:117,0
DA:121,0
DA:122,0
DA:123,0
DA:125,0
DA:127,4
LF:41
LH:29
end_of_record
TN:
SF:/home/bob/_workspaces/kit.core/src/Kit/Io/LineWriter.cpp
FN:18,22,_ZN3Kit2Io10LineWriterC2ERNS0_7IOutputEPKc
FN:26,29,_ZN3Kit2Io10LineWriter5printEPKc
FN:32,36,_ZN3Kit2Io10LineWriter7printlnEPKc
FN:38,41,_ZN3Kit2Io10LineWriter7printlnEv
FN:44,47,_ZN3Kit2Io10LineWriter5printEPKci
FN:50,54,_ZN3Kit2Io10LineWriter7printlnEPKci
FN:57,64,_ZN3Kit2Io10LineWriter5printERNS_4Text7IStringEPKcz
FN:67,74,_ZN3Kit2Io10LineWriter7printlnERNS_4Text7IStringEPKcz
FN:77,80,_ZN3Kit2Io10LineWriter6vprintERNS_4Text7IStringEPKcP13__va_list_tag
FN:83,87,_ZN3Kit2Io10LineWriter8vprintlnERNS_4Text7IStringEPKcP13__va_list_tag
FN:90,93,_ZN3Kit2Io10LineWriter5flushEv
FN:96,99,_ZN3Kit2Io10LineWriter5closeEv
FNDA:3,_ZN3Kit2Io10LineWriterC2ERNS0_7IOutputEPKc
FNDA:3,_ZN3Kit2Io10LineWriter5printEPKc
FNDA:3,_ZN3Kit2Io10LineWriter7printlnEPKc
FNDA:3,_ZN3Kit2Io10LineWriter7printlnEv
FNDA:0,_ZN3Kit2Io10LineWriter5printEPKci
FNDA:0,_ZN3Kit2Io10LineWriter7printlnEPKci
FNDA:0,_ZN3Kit2Io10LineWriter5printERNS_4Text7IStringEPKcz
FNDA:0,_ZN3Kit2Io10LineWriter7printlnERNS_4Text7IStringEPKcz
FNDA:0,_ZN3Kit2Io10LineWriter6vprintERNS_4Text7IStringEPKcP13__va_list_tag
FNDA:0,_ZN3Kit2Io10LineWriter8vprintlnERNS_4Text7IStringEPKcP13__va_list_tag
FNDA:1,_ZN3Kit2Io10LineWriter5flushEv
FNDA:1,_ZN3Kit2Io10LineWriter5closeEv
FNF:12
FNH:6
BRDA:35,0,0,2
BRDA:35,0,1,1
BRDA:35,0,2,2
BRDA:35,0,3,0
BRDA:53,0,0,-
BRDA:53,0,1,-
BRDA:53,0,2,-
BRDA:53,0,3,-
BRDA:73,0,0,-
BRDA:73,0,1,-
BRDA:73,0,2,-
BRDA:73,0,3,-
BRDA:86,0,0,-
BRDA:86,0,1,-
BRDA:86,0,2,-
BRDA:86,0,3,-
BRF:16
BRH:3
DA:18,3
DA:19,3
DA:20,3
DA:22,3
DA:26,3
DA:28,3
DA:32,3
DA:34,3
DA:35,3
DA:38,3
DA:40,3
DA:44,0
DA:46,0
DA:50,0
DA:52,0
DA:53,0
DA:57,0
DA:60,0
DA:61,0
DA:62,0
DA:63,0
DA:67,0
DA:70,0
DA:71,0
DA:72,0
DA:73,0
DA:77,0
DA:79,0
DA:83,0
DA:85,0
DA:86,0
DA:90,1
DA:92,1
DA:93,1
DA:96,1
DA:98,1
DA:99,1
LF:37
LH:17
end_of_record
TN:
SF:/home/bob/_workspaces/kit.core/src/Kit/Io/Null.h
FN:31,34,_ZN3Kit2Io4NullC1Ev
FN:41,45,_ZN3Kit2Io4Null4readEPviRi
FN:48,51,_ZN3Kit2Io4Null9availableEv
FN:59,63,_ZN3Kit2Io4Null5writeEPKviRi
FN:66,68,_ZN3Kit2Io4Null5flushEv
FN:72,75,_ZN3Kit2Io4Null5isEosEv
FN:78,81,_ZN3Kit2Io4Null5closeEv
FNDA:13,_ZN3Kit2Io4NullC1Ev
FNDA:6,_ZN3Kit2Io4Null4readEPviRi
FNDA:1,_ZN3Kit2Io4Null9availableEv
FNDA:27,_ZN3Kit2Io4Null5writeEPKviRi
FNDA:2,_ZN3Kit2Io4Null5flushEv
FNDA:0,_ZN3Kit2Io4Null5isEosEv
FNDA:11,_ZN3Kit2Io4Null5closeEv
FNF:7
FNH:6
DA:31,13
DA:32,13
DA:34,13
DA:41,6
DA:43,6
DA:44,6
DA:48,1
DA:50,1
DA:59,27
DA:61,27
DA:62,27
DA:66,2
DA:68,2
DA:72,0
DA:74,0
DA:78,11
DA:80,11
DA:81,11
LF:18
LH:16
end_of_record
TN:
SF:/home/bob/_workspaces/kit.core/src/Kit/Io/Stdio/_posix/InputDelegate.cpp
FN:21,25,_ZN3Kit2Io5Stdio13InputDelegateC1Ei
FN:21,25,_ZN3Kit2Io5Stdio13InputDelegateC2Ei
FN:28,31,_ZN3Kit2Io5Stdio13InputDelegate4readEPviRi
FN:34,37,_ZN3Kit2Io5Stdio13InputDelegate9availableEv
FN:39,42,_ZN3Kit2Io5Stdio13InputDelegate5isEosEv
FN:44,48,_ZN3Kit2Io5Stdio13InputDelegate5closeEv
FNDA:0,_ZN3Kit2Io5Stdio13InputDelegateC1Ei
FNDA:3,_ZN3Kit2Io5Stdio13InputDelegateC2Ei
FNDA:97,_ZN3Kit2Io5Stdio13InputDelegate4readEPviRi
FNDA:2,_ZN3Kit2Io5Stdio13InputDelegate9availableEv
FNDA:24,_ZN3Kit2Io5Stdio13InputDelegate5isEosEv
FNDA:3,_ZN3Kit2Io5Stdio13InputDelegate5closeEv
FNF:6
FNH:5
DA:21,3
DA:22,3
DA:23,3
DA:25,3
DA:28,97
DA:30,97
DA:34,2
DA:36,2
DA:39,24
DA:41,24
DA:44,3
DA:47,3
DA:48,3
LF:13
LH:13
end_of_record
TN:
SF:/home/bob/_workspaces/kit.core/src/Kit/Io/Stdio/_posix/OutputDelegate.cpp
FN:21,25,_ZN3Kit2Io5Stdio14OutputDelegateC1Ei
FN:21,25,_ZN3Kit2Io5Stdio14OutputDelegateC2Ei
FN:28,31,_ZN3Kit2Io5Stdio14OutputDelegate5writeEPKviRi
FN:33,36,_ZN3Kit2Io5Stdio14OutputDelegate5flushEv
FN:38,41,_ZN3Kit2Io5Stdio14OutputDelegate5isEosEv
FN:43,47,_ZN3Kit2Io5Stdio14OutputDelegate5closeEv
FNDA:0,_ZN3Kit2Io5Stdio14OutputDelegateC1Ei
FNDA:7,_ZN3Kit2Io5Stdio14OutputDelegateC2Ei
FNDA:33,_ZN3Kit2Io5Stdio14OutputDelegate5writeEPKviRi
FNDA:2,_ZN3Kit2Io5Stdio14OutputDelegate5flushEv
FNDA:0,_ZN3Kit2Io5Stdio14OutputDelegate5isEosEv
FNDA:7,_ZN3Kit2Io5Stdio14OutputDelegate5closeEv
FNF:6
FNH:4
DA:21,7
DA:22,7
DA:23,7
DA:25,7
DA:28,33
DA:30,33
DA:33,2
DA:35,2
DA:36,2
DA:38,0
DA:40,0
DA:43,7
DA:46,7
DA:47,7
LF:14
LH:12
end_of_record
TN:
SF:/home/bob/_workspaces/kit.core/src/Kit/Io/Stdio/_posix/StdIn.cpp
FN:18,21,_ZN3Kit2Io5Stdio5StdInC1Ev
FN:18,21,_ZN3Kit2Io5Stdio5StdInC2Ev
FNDA:3,_ZN3Kit2Io5Stdio5StdInC1Ev
FNDA:0,_ZN3Kit2Io5Stdio5StdInC2Ev
FNF:2
FNH:1
BRDA:19,0,0,3
BRDA:19,e0,1,0
BRF:2
BRH:1
DA:18,3
DA:19,3
DA:21,3
LF:3
LH:3
end_of_record
TN:
SF:/home/bob/_workspaces/kit.core/src/Kit/Io/Stdio/_posix/StdOut.cpp
FN:17,20,_ZN3Kit2Io5Stdio6StdOutC1Ev
FN:17,20,_ZN3Kit2Io5Stdio6StdOutC2Ev
FNDA:7,_ZN3Kit2Io5Stdio6StdOutC1Ev
FNDA:0,_ZN3Kit2Io5Stdio6StdOutC2Ev
FNF:2
FNH:1
DA:17,7
DA:18,7
DA:20,7
LF:3
LH:3
end_of_record
TN:
SF:/home/bob/_workspaces/kit.core/src/Kit/Io/Stdio/_posix/fdio.h
FN:111,130,_ZN3Kit2Io5Stdio7PosixIO4readEiRbPviRi
FN:135,146,_ZN3Kit2Io5Stdio7PosixIO9availableEi
FN:49,68,_ZN3Kit2Io5Stdio7PosixIO5writeEiRbPKviRi
FN:71,78,_ZN3Kit2Io5Stdio7PosixIO5flushEi
FNDA:97,_ZN3Kit2Io5Stdio7PosixIO4readEiRbPviRi
FNDA:2,_ZN3Kit2Io5Stdio7PosixIO9availableEi
FNDA:33,_ZN3Kit2Io5Stdio7PosixIO5writeEiRbPKviRi
FNDA:2,_ZN3Kit2Io5Stdio7PosixIO5flushEi
FNF:4
FNH:4
BRDA:52,0,0,10
BRDA:52,0,1,23
BRDA:58,0,0,2
BRDA:58,0,1,21
BRDA:74,0,0,2
BRDA:74,0,1,0
BRDA:114,0,0,4
BRDA:114,0,1,93
BRDA:120,0,0,1
BRDA:120,0,1,92
BRDA:138,0,0,0
BRDA:138,0,1,2
BRF:12
BRH:10
DA:49,33
DA:52,33
DA:54,10
DA:58,23
DA:60,2
DA:61,2
DA:65,21
DA:66,21
DA:67,21
DA:71,2
DA:74,2
DA:76,2
DA:78,2
DA:111,97
DA:114,97
DA:116,4
DA:120,93
DA:122,1
DA:123,1
DA:127,92
DA:128,92
DA:129,92
DA:135,2
DA:138,2
DA:140,0
DA:144,2
DA:145,2
LF:27
LH:26
end_of_record
TN:
SF:/home/bob/_workspaces/kit.core/src/Kit/Io/TeeOutput.cpp
FN:116,162,_ZN3Kit2Io9TeeOutput5writeEPKviRi
FN:165,174,_ZN3Kit2Io9TeeOutput5flushEv
FN:176,192,_ZN3Kit2Io9TeeOutput5isEosEv
FN:18,23,_ZN3Kit2Io9TeeOutputC1Ev
FN:18,23,_ZN3Kit2Io9TeeOutputC2Ev
FN:194,214,_ZN3Kit2Io9TeeOutput5closeEv
FN:25,29,_ZN3Kit2Io9TeeOutputC1ERNS0_7IOutputE
FN:25,29,_ZN3Kit2Io9TeeOutputC2ERNS0_7IOutputE
FN:31,36,_ZN3Kit2Io9TeeOutputC1ERNS0_7IOutputES3_
FN:31,36,_ZN3Kit2Io9TeeOutputC2ERNS0_7IOutputES3_
FN:39,46,_ZN3Kit2Io9TeeOutput6removeERNS0_7IOutputE
FN:48,62,_ZN3Kit2Io9TeeOutput3addEPPNS0_7IOutputERS2_
FN:64,76,_ZN3Kit2Io9TeeOutput6removeEPPNS0_7IOutputERS2_
FN:79,90,_ZNK3Kit2Io9TeeOutput5firstEPPNS0_7IOutputE
FN:92,113,_ZNK3Kit2Io9TeeOutput4nextEPPNS0_7IOutputERS2_
FNDA:18,_ZN3Kit2Io9TeeOutput5writeEPKviRi
FNDA:1,_ZN3Kit2Io9TeeOutput5flushEv
FNDA:0,_ZN3Kit2Io9TeeOutput5isEosEv
FNDA:4,_ZN3Kit2Io9TeeOutputC1Ev
FNDA:0,_ZN3Kit2Io9TeeOutputC2Ev
FNDA:4,_ZN3Kit2Io9TeeOutput5closeEv
FNDA:1,_ZN3Kit2Io9TeeOutputC1ERNS0_7IOutputE
FNDA:0,_ZN3Kit2Io9TeeOutputC2ERNS0_7IOutputE
FNDA:3,_ZN3Kit2Io9TeeOutputC1ERNS0_7IOutputES3_
FNDA:0,_ZN3Kit2Io9TeeOutputC2ERNS0_7IOutputES3_
FNDA:11,_ZN3Kit2Io9TeeOutput6removeERNS0_7IOutputE
FNDA:13,_ZN3Kit2Io9TeeOutput3addEPPNS0_7IOutputERS2_
FNDA:26,_ZN3Kit2Io9TeeOutput6removeEPPNS0_7IOutputERS2_
FNDA:20,_ZNK3Kit2Io9TeeOutput5firstEPPNS0_7IOutputE
FNDA:1,_ZNK3Kit2Io9TeeOutput4nextEPPNS0_7IOutputERS2_
FNF:15
FNH:11
BRDA:41,0,0,7
BRDA:41,0,1,4
BRDA:51,0,0,27
BRDA:51,0,1,0
BRDA:53,0,0,13
BRDA:53,0,1,14
BRDA:66,0,0,70
BRDA:66,0,1,10
BRDA:68,0,0,16
BRDA:68,0,1,54
BRDA:81,0,0,44
BRDA:81,0,1,5
BRDA:83,0,0,15
BRDA:83,0,1,29
BRDA:95,0,0,2
BRDA:95,0,1,0
BRDA:97,0,0,1
BRDA:97,0,1,1
BRDA:99,0,0,1
BRDA:99,0,1,0
BRDA:106,0,0,1
BRDA:106,0,1,0
BRDA:122,0,0,4
BRDA:122,0,1,14
BRDA:133,0,0,56
BRDA:133,0,1,14
BRDA:136,0,0,29
BRDA:136,0,1,27
BRDA:143,0,0,8
BRDA:143,0,1,19
BRDA:154,0,0,11
BRDA:154,0,1,8
BRDA:167,0,0,4
BRDA:167,0,1,1
BRDA:169,0,0,1
BRDA:169,0,1,3
BRDA:179,0,0,-
BRDA:179,0,1,-
BRDA:182,0,0,-
BRDA:182,0,1,-
BRDA:182,0,2,-
BRDA:182,0,3,-
BRDA:182,0,4,-
BRDA:182,0,5,-
BRDA:196,0,0,4
BRDA:196,0,1,0
BRDA:202,0,0,16
BRDA:202,0,1,4
BRDA:204,0,0,4
BRDA:204,0,1,12
BRDA:208,0,0,2
BRDA:208,0,1,14
BRF:52
BRH:39
DA:18,4
DA:19,4
DA:21,4
DA:22,4
DA:23,4
DA:25,1
DA:26,1
DA:28,1
DA:29,1
DA:31,3
DA:32,3
DA:34,3
DA:35,3
DA:36,3
DA:39,11
DA:41,11
DA:43,7
DA:45,4
DA:48,13
DA:51,27
DA:53,27
DA:55,13
DA:56,13
DA:61,0
DA:64,26
DA:66,80
DA:68,70
DA:70,16
DA:71,16
DA:75,10
DA:79,20
DA:81,49
DA:83,44
DA:85,15
DA:89,5
DA:92,1
DA:94,1
DA:95,2
DA:97,2
DA:99,1
DA:101,1
DA:103,1
DA:106,1
DA:108,1
DA:112,0
DA:116,18
DA:118,18
DA:119,18
DA:122,18
DA:125,4
DA:126,4
DA:130,14
DA:133,70
DA:135,56
DA:136,56
DA:138,29
DA:143,27
DA:146,8
DA:147,8
DA:148,8
DA:154,19
DA:156,11
DA:161,14
DA:165,1
DA:167,5
DA:169,4
DA:171,1
DA:174,1
DA:176,0
DA:178,0
DA:179,0
DA:181,0
DA:182,0
DA:185,0
DA:186,0
DA:187,0
DA:191,0
DA:194,4
DA:196,4
DA:199,4
DA:202,20
DA:204,16
DA:206,4
DA:208,16
DA:210,2
DA:214,4
LF:86
LH:75
end_of_record
TN:
SF:/home/bob/_workspaces/kit.core/src/Kit/Io/TeeOutput.h
FN:58,58,_ZN3Kit2Io9TeeOutput3addERNS0_7IOutputE
FN:73,73,_ZN3Kit2Io9TeeOutput11firstFailedEv
FN:78,78,_ZN3Kit2Io9TeeOutput10nextFailedERNS0_7IOutputE
FNDA:5,_ZN3Kit2Io9TeeOutput3addERNS0_7IOutputE
FNDA:2,_ZN3Kit2Io9TeeOutput11firstFailedEv
FNDA:1,_ZN3Kit2Io9TeeOutput10nextFailedERNS0_7IOutputE
FNF:3
FNH:3
DA:58,5
DA:73,2
DA:78,1
LF:3
LH:3
end_of_record
